; ModuleID = '39/1951.c'
source_filename = "39/1951.c"
target datalayout = "e-m:e-p270:32:32-p271:32:32-p272:64:64-i64:64-f80:128-n8:16:32:64-S128"
target triple = "x86_64-pc-linux-gnu"

%struct.student = type { [20 x i8], i32, i32, i8, i8, i32, i32 }

@.str = private unnamed_addr constant [3 x i8] c"%d\00", align 1
@stu = common dso_local global [100 x %struct.student] zeroinitializer, align 16
@.str.1 = private unnamed_addr constant [18 x i8] c"%s %d %d %c %c %d\00", align 1
@.str.2 = private unnamed_addr constant [7 x i8] c"%s\0A%d\0A\00", align 1

; Function Attrs: noinline nounwind uwtable
define dso_local void @main() #0 {
  %1 = alloca i32, align 4
  %2 = alloca i32, align 4
  %3 = alloca i32, align 4
  %4 = alloca i32, align 4
  %5 = alloca %struct.student*, align 8
  store i32 0, i32* %3, align 4
  store i32 0, i32* %4, align 4
  %6 = call i32 (i8*, ...) @__isoc99_scanf(i8* getelementptr inbounds ([3 x i8], [3 x i8]* @.str, i64 0, i64 0), i32* %1)
  store %struct.student* getelementptr inbounds ([100 x %struct.student], [100 x %struct.student]* @stu, i64 0, i64 0), %struct.student** %5, align 8
  br label %7

7:                                                ; preds = %112, %0
  %8 = load %struct.student*, %struct.student** %5, align 8
  %9 = load i32, i32* %1, align 4
  %10 = sext i32 %9 to i64
  %11 = getelementptr inbounds %struct.student, %struct.student* getelementptr inbounds ([100 x %struct.student], [100 x %struct.student]* @stu, i64 0, i64 0), i64 %10
  %12 = icmp ult %struct.student* %8, %11
  br i1 %12, label %13, label %115

13:                                               ; preds = %7
  %14 = load %struct.student*, %struct.student** %5, align 8
  %15 = getelementptr inbounds %struct.student, %struct.student* %14, i32 0, i32 0
  %16 = getelementptr inbounds [20 x i8], [20 x i8]* %15, i64 0, i64 0
  %17 = load %struct.student*, %struct.student** %5, align 8
  %18 = getelementptr inbounds %struct.student, %struct.student* %17, i32 0, i32 1
  %19 = load %struct.student*, %struct.student** %5, align 8
  %20 = getelementptr inbounds %struct.student, %struct.student* %19, i32 0, i32 2
  %21 = load %struct.student*, %struct.student** %5, align 8
  %22 = getelementptr inbounds %struct.student, %struct.student* %21, i32 0, i32 3
  %23 = load %struct.student*, %struct.student** %5, align 8
  %24 = getelementptr inbounds %struct.student, %struct.student* %23, i32 0, i32 4
  %25 = load %struct.student*, %struct.student** %5, align 8
  %26 = getelementptr inbounds %struct.student, %struct.student* %25, i32 0, i32 5
  %27 = call i32 (i8*, ...) @__isoc99_scanf(i8* getelementptr inbounds ([18 x i8], [18 x i8]* @.str.1, i64 0, i64 0), i8* %16, i32* %18, i32* %20, i8* %22, i8* %24, i32* %26)
  %28 = load %struct.student*, %struct.student** %5, align 8
  %29 = getelementptr inbounds %struct.student, %struct.student* %28, i32 0, i32 6
  store i32 0, i32* %29, align 4
  %30 = load %struct.student*, %struct.student** %5, align 8
  %31 = getelementptr inbounds %struct.student, %struct.student* %30, i32 0, i32 1
  %32 = load i32, i32* %31, align 4
  %33 = icmp sgt i32 %32, 80
  br i1 %33, label %34, label %46

34:                                               ; preds = %13
  %35 = load %struct.student*, %struct.student** %5, align 8
  %36 = getelementptr inbounds %struct.student, %struct.student* %35, i32 0, i32 5
  %37 = load i32, i32* %36, align 4
  %38 = icmp sge i32 %37, 1
  br i1 %38, label %39, label %46

39:                                               ; preds = %34
  %40 = load %struct.student*, %struct.student** %5, align 8
  %41 = getelementptr inbounds %struct.student, %struct.student* %40, i32 0, i32 6
  %42 = load i32, i32* %41, align 4
  %43 = add nsw i32 %42, 8000
  %44 = load %struct.student*, %struct.student** %5, align 8
  %45 = getelementptr inbounds %struct.student, %struct.student* %44, i32 0, i32 6
  store i32 %43, i32* %45, align 4
  br label %46

46:                                               ; preds = %39, %34, %13
  %47 = load %struct.student*, %struct.student** %5, align 8
  %48 = getelementptr inbounds %struct.student, %struct.student* %47, i32 0, i32 1
  %49 = load i32, i32* %48, align 4
  %50 = icmp sgt i32 %49, 85
  br i1 %50, label %51, label %63

51:                                               ; preds = %46
  %52 = load %struct.student*, %struct.student** %5, align 8
  %53 = getelementptr inbounds %struct.student, %struct.student* %52, i32 0, i32 2
  %54 = load i32, i32* %53, align 4
  %55 = icmp sgt i32 %54, 80
  br i1 %55, label %56, label %63

56:                                               ; preds = %51
  %57 = load %struct.student*, %struct.student** %5, align 8
  %58 = getelementptr inbounds %struct.student, %struct.student* %57, i32 0, i32 6
  %59 = load i32, i32* %58, align 4
  %60 = add nsw i32 %59, 4000
  %61 = load %struct.student*, %struct.student** %5, align 8
  %62 = getelementptr inbounds %struct.student, %struct.student* %61, i32 0, i32 6
  store i32 %60, i32* %62, align 4
  br label %63

63:                                               ; preds = %56, %51, %46
  %64 = load %struct.student*, %struct.student** %5, align 8
  %65 = getelementptr inbounds %struct.student, %struct.student* %64, i32 0, i32 1
  %66 = load i32, i32* %65, align 4
  %67 = icmp sgt i32 %66, 90
  br i1 %67, label %68, label %75

68:                                               ; preds = %63
  %69 = load %struct.student*, %struct.student** %5, align 8
  %70 = getelementptr inbounds %struct.student, %struct.student* %69, i32 0, i32 6
  %71 = load i32, i32* %70, align 4
  %72 = add nsw i32 %71, 2000
  %73 = load %struct.student*, %struct.student** %5, align 8
  %74 = getelementptr inbounds %struct.student, %struct.student* %73, i32 0, i32 6
  store i32 %72, i32* %74, align 4
  br label %75

75:                                               ; preds = %68, %63
  %76 = load %struct.student*, %struct.student** %5, align 8
  %77 = getelementptr inbounds %struct.student, %struct.student* %76, i32 0, i32 1
  %78 = load i32, i32* %77, align 4
  %79 = icmp sgt i32 %78, 85
  br i1 %79, label %80, label %93

80:                                               ; preds = %75
  %81 = load %struct.student*, %struct.student** %5, align 8
  %82 = getelementptr inbounds %struct.student, %struct.student* %81, i32 0, i32 4
  %83 = load i8, i8* %82, align 1
  %84 = sext i8 %83 to i32
  %85 = icmp eq i32 %84, 89
  br i1 %85, label %86, label %93

86:                                               ; preds = %80
  %87 = load %struct.student*, %struct.student** %5, align 8
  %88 = getelementptr inbounds %struct.student, %struct.student* %87, i32 0, i32 6
  %89 = load i32, i32* %88, align 4
  %90 = add nsw i32 %89, 1000
  %91 = load %struct.student*, %struct.student** %5, align 8
  %92 = getelementptr inbounds %struct.student, %struct.student* %91, i32 0, i32 6
  store i32 %90, i32* %92, align 4
  br label %93

93:                                               ; preds = %86, %80, %75
  %94 = load %struct.student*, %struct.student** %5, align 8
  %95 = getelementptr inbounds %struct.student, %struct.student* %94, i32 0, i32 2
  %96 = load i32, i32* %95, align 4
  %97 = icmp sgt i32 %96, 80
  br i1 %97, label %98, label %111

98:                                               ; preds = %93
  %99 = load %struct.student*, %struct.student** %5, align 8
  %100 = getelementptr inbounds %struct.student, %struct.student* %99, i32 0, i32 3
  %101 = load i8, i8* %100, align 4
  %102 = sext i8 %101 to i32
  %103 = icmp eq i32 %102, 89
  br i1 %103, label %104, label %111

104:                                              ; preds = %98
  %105 = load %struct.student*, %struct.student** %5, align 8
  %106 = getelementptr inbounds %struct.student, %struct.student* %105, i32 0, i32 6
  %107 = load i32, i32* %106, align 4
  %108 = add nsw i32 %107, 850
  %109 = load %struct.student*, %struct.student** %5, align 8
  %110 = getelementptr inbounds %struct.student, %struct.student* %109, i32 0, i32 6
  store i32 %108, i32* %110, align 4
  br label %111

111:                                              ; preds = %104, %98, %93
  br label %112

112:                                              ; preds = %111
  %113 = load %struct.student*, %struct.student** %5, align 8
  %114 = getelementptr inbounds %struct.student, %struct.student* %113, i32 1
  store %struct.student* %114, %struct.student** %5, align 8
  br label %7

115:                                              ; preds = %7
  store %struct.student* getelementptr inbounds ([100 x %struct.student], [100 x %struct.student]* @stu, i64 0, i64 0), %struct.student** %5, align 8
  br label %116

116:                                              ; preds = %133, %115
  %117 = load %struct.student*, %struct.student** %5, align 8
  %118 = load i32, i32* %1, align 4
  %119 = sext i32 %118 to i64
  %120 = getelementptr inbounds %struct.student, %struct.student* getelementptr inbounds ([100 x %struct.student], [100 x %struct.student]* @stu, i64 0, i64 0), i64 %119
  %121 = icmp ult %struct.student* %117, %120
  br i1 %121, label %122, label %136

122:                                              ; preds = %116
  %123 = load %struct.student*, %struct.student** %5, align 8
  %124 = getelementptr inbounds %struct.student, %struct.student* %123, i32 0, i32 6
  %125 = load i32, i32* %124, align 4
  %126 = load i32, i32* %3, align 4
  %127 = icmp sgt i32 %125, %126
  br i1 %127, label %128, label %132

128:                                              ; preds = %122
  %129 = load %struct.student*, %struct.student** %5, align 8
  %130 = getelementptr inbounds %struct.student, %struct.student* %129, i32 0, i32 6
  %131 = load i32, i32* %130, align 4
  store i32 %131, i32* %3, align 4
  br label %132

132:                                              ; preds = %128, %122
  br label %133

133:                                              ; preds = %132
  %134 = load %struct.student*, %struct.student** %5, align 8
  %135 = getelementptr inbounds %struct.student, %struct.student* %134, i32 1
  store %struct.student* %135, %struct.student** %5, align 8
  br label %116

136:                                              ; preds = %116
  store %struct.student* getelementptr inbounds ([100 x %struct.student], [100 x %struct.student]* @stu, i64 0, i64 0), %struct.student** %5, align 8
  br label %137

137:                                              ; preds = %158, %136
  %138 = load %struct.student*, %struct.student** %5, align 8
  %139 = load i32, i32* %1, align 4
  %140 = sext i32 %139 to i64
  %141 = getelementptr inbounds %struct.student, %struct.student* getelementptr inbounds ([100 x %struct.student], [100 x %struct.student]* @stu, i64 0, i64 0), i64 %140
  %142 = icmp ult %struct.student* %138, %141
  br i1 %142, label %143, label %161

143:                                              ; preds = %137
  %144 = load %struct.student*, %struct.student** %5, align 8
  %145 = getelementptr inbounds %struct.student, %struct.student* %144, i32 0, i32 6
  %146 = load i32, i32* %145, align 4
  %147 = load i32, i32* %3, align 4
  %148 = icmp eq i32 %146, %147
  br i1 %148, label %149, label %157

149:                                              ; preds = %143
  %150 = load %struct.student*, %struct.student** %5, align 8
  %151 = getelementptr inbounds %struct.student, %struct.student* %150, i32 0, i32 0
  %152 = getelementptr inbounds [20 x i8], [20 x i8]* %151, i64 0, i64 0
  %153 = load %struct.student*, %struct.student** %5, align 8
  %154 = getelementptr inbounds %struct.student, %struct.student* %153, i32 0, i32 6
  %155 = load i32, i32* %154, align 4
  %156 = call i32 (i8*, ...) @printf(i8* getelementptr inbounds ([7 x i8], [7 x i8]* @.str.2, i64 0, i64 0), i8* %152, i32 %155)
  br label %161

157:                                              ; preds = %143
  br label %158

158:                                              ; preds = %157
  %159 = load %struct.student*, %struct.student** %5, align 8
  %160 = getelementptr inbounds %struct.student, %struct.student* %159, i32 1
  store %struct.student* %160, %struct.student** %5, align 8
  br label %137

161:                                              ; preds = %149, %137
  store %struct.student* getelementptr inbounds ([100 x %struct.student], [100 x %struct.student]* @stu, i64 0, i64 0), %struct.student** %5, align 8
  br label %162

162:                                              ; preds = %174, %161
  %163 = load %struct.student*, %struct.student** %5, align 8
  %164 = load i32, i32* %1, align 4
  %165 = sext i32 %164 to i64
  %166 = getelementptr inbounds %struct.student, %struct.student* getelementptr inbounds ([100 x %struct.student], [100 x %struct.student]* @stu, i64 0, i64 0), i64 %165
  %167 = icmp ult %struct.student* %163, %166
  br i1 %167, label %168, label %177

168:                                              ; preds = %162
  %169 = load i32, i32* %4, align 4
  %170 = load %struct.student*, %struct.student** %5, align 8
  %171 = getelementptr inbounds %struct.student, %struct.student* %170, i32 0, i32 6
  %172 = load i32, i32* %171, align 4
  %173 = add nsw i32 %169, %172
  store i32 %173, i32* %4, align 4
  br label %174

174:                                              ; preds = %168
  %175 = load %struct.student*, %struct.student** %5, align 8
  %176 = getelementptr inbounds %struct.student, %struct.student* %175, i32 1
  store %struct.student* %176, %struct.student** %5, align 8
  br label %162

177:                                              ; preds = %162
  %178 = load i32, i32* %4, align 4
  %179 = call i32 (i8*, ...) @printf(i8* getelementptr inbounds ([3 x i8], [3 x i8]* @.str, i64 0, i64 0), i32 %178)
  ret void
}

declare dso_local i32 @__isoc99_scanf(i8*, ...) #1

declare dso_local i32 @printf(i8*, ...) #1


!llvm.module.flags = !{!0}
!llvm.ident = !{!1}

!0 = !{i32 1, !"wchar_size", i32 4}
!1 = !{!"clang version 10.0.0-4ubuntu1 "}
